target datalayout = "e-m:e-p270:32:32-p271:32:32-p272:64:64-i64:64-i128:128-f80:128-n8:16:32:64-S128"
target triple = "x86_64-pc-linux-gnu"

%struct.AVFilterLink = type { ptr, ptr, ptr, ptr, i32, i32, i32, i32, %struct.AVRational, i32, i32, i32, %struct.AVChannelLayout, %struct.AVRational, ptr, i32, %struct.AVFilterFormatsConfig, %struct.AVFilterFormatsConfig }
%struct.AVChannelLayout = type { i32, i32, %union.anon.1, ptr }
%union.anon.1 = type { i64 }
%struct.AVRational = type { i32, i32 }
%struct.AVFilterFormatsConfig = type { ptr, ptr, ptr, ptr, ptr }
%struct.AVFilterContext = type { ptr, ptr, ptr, ptr, ptr, i32, ptr, ptr, i32, ptr, ptr, i32, i32, ptr, ptr, ptr, ptr, i32, ptr, i32, i32 }
%struct.TransContext = type { ptr, i32, i32, i32, [4 x i32], i32, i32, [4 x %struct.TransVtable] }
%struct.TransVtable = type { ptr, ptr }

; Function Attrs: nounwind uwtable
define internal ptr @get_video_buffer(ptr noundef %0, i32 noundef %1, i32 noundef %2) #0 {
  %4 = alloca ptr, align 8
  %5 = alloca i32, align 4
  %6 = alloca i32, align 4
  %7 = alloca ptr, align 8
  store ptr %0, ptr %4, align 8, !tbaa !26
  store i32 %1, ptr %5, align 4, !tbaa !14
  store i32 %2, ptr %6, align 4, !tbaa !14
  call void @llvm.lifetime.start.p0(i64 8, ptr %7) #9
  %8 = load ptr, ptr %4, align 8, !tbaa !26
  %9 = getelementptr inbounds nuw %struct.AVFilterLink, ptr %8, i32 0, i32 2
  %10 = load ptr, ptr %9, align 8, !tbaa !28
  %11 = getelementptr inbounds nuw %struct.AVFilterContext, ptr %10, i32 0, i32 9
  %12 = load ptr, ptr %11, align 8, !tbaa !36
  store ptr %12, ptr %7, align 8, !tbaa !45
  %13 = load ptr, ptr %7, align 8, !tbaa !45
  %14 = getelementptr inbounds nuw %struct.TransContext, ptr %13, i32 0, i32 5
  %15 = load i32, ptr %14, align 4, !tbaa !47
  %16 = icmp ne i32 %15, 0
  br i1 %16, label %17, label %22

17:                                               ; preds = %3
  %18 = load ptr, ptr %4, align 8, !tbaa !26
  %19 = load i32, ptr %5, align 4, !tbaa !14
  %20 = load i32, ptr %6, align 4, !tbaa !14
  %21 = call ptr @ff_null_get_video_buffer(ptr noundef %18, i32 noundef %19, i32 noundef %20)
  br label %27

22:                                               ; preds = %3
  %23 = load ptr, ptr %4, align 8, !tbaa !26
  %24 = load i32, ptr %5, align 4, !tbaa !14
  %25 = load i32, ptr %6, align 4, !tbaa !14
  %26 = call ptr @ff_default_get_video_buffer(ptr noundef %23, i32 noundef %24, i32 noundef %25)
  br label %27

27:                                               ; preds = %22, %17
  %28 = phi ptr [ %21, %17 ], [ %26, %22 ]
  call void @llvm.lifetime.end.p0(i64 8, ptr %7) #9
  ret ptr %28
}